target datalayout = "e-m:e-p270:32:32-p271:32:32-p272:64:64-i64:64-i128:128-f80:128-n8:16:32:64-S128"
target triple = "x86_64-pc-linux-gnu"

%struct.cl_fmap = type { ptr, ptr, ptr, i64, i64, i64, i64, i8, i8, i8, i64, i64, i64, i64, ptr, ptr, ptr, ptr, ptr, ptr, ptr, i8, [16 x i8], i8, [20 x i8], i8, [32 x i8], ptr, ptr }

@.str.224 = private unnamed_addr constant [36 x i8] c"map_sha1: failed to read hash data\0A\00", align 1

; Function Attrs: inlinehint nounwind uwtable
define internal i64 @fmap_ptr2off(ptr noundef %0, ptr noundef %1) #3 {
  %3 = alloca ptr, align 8
  %4 = alloca ptr, align 8
  store ptr %0, ptr %3, align 8, !tbaa !3
  store ptr %1, ptr %4, align 8, !tbaa !62
  %5 = load ptr, ptr %4, align 8, !tbaa !62
  %6 = load ptr, ptr %3, align 8, !tbaa !3
  %7 = getelementptr inbounds nuw %struct.cl_fmap, ptr %6, i32 0, i32 2
  %8 = load ptr, ptr %7, align 8, !tbaa !106
  %9 = ptrtoint ptr %5 to i64
  %10 = ptrtoint ptr %8 to i64
  %11 = sub i64 %9, %10
  %12 = load ptr, ptr %3, align 8, !tbaa !3
  %13 = getelementptr inbounds nuw %struct.cl_fmap, ptr %12, i32 0, i32 11
  %14 = load i64, ptr %13, align 8, !tbaa !107
  %15 = sub i64 %11, %14
  ret i64 %15
}

; Function Attrs: inlinehint nounwind uwtable
define internal ptr @fmap_need_ptr_once(ptr noundef %0, ptr noundef %1, i64 noundef %2) #3 {
  %4 = alloca ptr, align 8
  %5 = alloca ptr, align 8
  %6 = alloca i64, align 8
  store ptr %0, ptr %4, align 8, !tbaa !3
  store ptr %1, ptr %5, align 8, !tbaa !62
  store i64 %2, ptr %6, align 8, !tbaa !61
  %7 = load ptr, ptr %4, align 8, !tbaa !3
  %8 = getelementptr inbounds nuw %struct.cl_fmap, ptr %7, i32 0, i32 15
  %9 = load ptr, ptr %8, align 8, !tbaa !87
  %10 = load ptr, ptr %4, align 8, !tbaa !3
  %11 = load ptr, ptr %4, align 8, !tbaa !3
  %12 = load ptr, ptr %5, align 8, !tbaa !62
  %13 = call i64 @fmap_ptr2off(ptr noundef %11, ptr noundef %12)
  %14 = load i64, ptr %6, align 8, !tbaa !61
  %15 = call ptr %9(ptr noundef %10, i64 noundef %13, i64 noundef %14, i32 noundef 0)
  ret ptr %15
}

; Function Attrs: nounwind uwtable
define internal i32 @map_sha1(ptr noundef %0, ptr noundef %1, i32 noundef %2, ptr noundef %3) #0 {
  %5 = alloca i32, align 4
  %6 = alloca ptr, align 8
  %7 = alloca ptr, align 8
  %8 = alloca i32, align 4
  %9 = alloca ptr, align 8
  store ptr %0, ptr %6, align 8, !tbaa !3
  store ptr %1, ptr %7, align 8, !tbaa !62
  store i32 %2, ptr %8, align 4, !tbaa !20
  store ptr %3, ptr %9, align 8, !tbaa !66
  %10 = load ptr, ptr %6, align 8, !tbaa !3
  %11 = load ptr, ptr %7, align 8, !tbaa !62
  %12 = load i32, ptr %8, align 4, !tbaa !20
  %13 = zext i32 %12 to i64
  %14 = call ptr @fmap_need_ptr_once(ptr noundef %10, ptr noundef %11, i64 noundef %13)
  %15 = icmp ne ptr %14, null
  br i1 %15, label %17, label %16

16:                                               ; preds = %4
  call void (ptr, ...) @cli_dbgmsg(ptr noundef @.str.224)
  store i32 1, ptr %5, align 4
  br label %25

17:                                               ; preds = %4
  %18 = load ptr, ptr %7, align 8, !tbaa !62
  %19 = load i32, ptr %8, align 4, !tbaa !20
  %20 = zext i32 %19 to i64
  %21 = load ptr, ptr %9, align 8, !tbaa !66
  %22 = call ptr @cl_sha1(ptr noundef %18, i64 noundef %20, ptr noundef %21, ptr noundef null)
  %23 = icmp eq ptr %22, null
  %24 = zext i1 %23 to i32
  store i32 %24, ptr %5, align 4
  br label %25

25:                                               ; preds = %17, %16
  %26 = load i32, ptr %5, align 4
  ret i32 %26
}