; Function Attrs: nounwind uwtable
define internal fastcc range(i32 0, 2) i32 @map_sha1(ptr noundef %0, ptr noundef %1, i32 noundef %2, ptr noundef nonnull %3) unnamed_addr #0 {
  %5 = zext i32 %2 to i64
  %6 = getelementptr inbounds nuw i8, ptr %0, i64 104
  %7 = load ptr, ptr %6, align 8, !tbaa !19
  %8 = getelementptr i8, ptr %0, i64 16
  %.val.i = load ptr, ptr %8, align 8, !tbaa !20
  %9 = getelementptr i8, ptr %0, i64 72
  %.val4.i = load i64, ptr %9, align 8, !tbaa !21
  %10 = ptrtoint ptr %1 to i64
  %11 = ptrtoint ptr %.val.i to i64
  %12 = add i64 %.val4.i, %11
  %13 = sub i64 %10, %12
  %14 = tail call ptr %7(ptr noundef %0, i64 noundef %13, i64 noundef range(i64 0, 4294967296) %5, i32 noundef 0) #11
  %.not = icmp eq ptr %14, null
  br i1 %.not, label %15, label %16

15:                                               ; preds = %4
  tail call void (ptr, ...) @cli_dbgmsg(ptr noundef nonnull @.str.224) #11
  br label %20

16:                                               ; preds = %4
  %17 = tail call ptr @cl_sha1(ptr noundef %1, i64 noundef %5, ptr noundef nonnull %3, ptr noundef null) #11
  %18 = icmp eq ptr %17, null
  %19 = zext i1 %18 to i32
  br label %20

20:                                               ; preds = %16, %15
  %.0 = phi i32 [ %19, %16 ], [ 1, %15 ]
  ret i32 %.0
}